; Function Attrs: mustprogress nofree norecurse nosync nounwind willreturn memory(read, inaccessiblemem: none) uwtable
define noundef zeroext i1 @_ZNK10open_spiel3nim8NimState10IsTerminalEv(ptr noundef nonnull readonly align 8 captures(none) dereferenceable(108) %0) unnamed_addr #6 align 2 {
  %2 = getelementptr inbounds nuw i8, ptr %0, i64 92
  %3 = load i32, ptr %2, align 4
  %.not = icmp eq i32 %3, -3
  br i1 %.not, label %4, label %_ZNK10open_spiel3nim8NimState7IsEmptyEv.exit

4:                                                ; preds = %1
  %5 = getelementptr inbounds nuw i8, ptr %0, i64 64
  %6 = load ptr, ptr %5, align 8
  %7 = getelementptr inbounds nuw i8, ptr %0, i64 72
  %8 = load ptr, ptr %7, align 8
  %.not5.i.i = icmp eq ptr %6, %8
  br i1 %.not5.i.i, label %_ZNK10open_spiel3nim8NimState7IsEmptyEv.exit, label %.lr.ph.i.i

.lr.ph.i.i:                                       ; preds = %4, %.lr.ph.i.i
  %.07.i.i = phi i32 [ %10, %.lr.ph.i.i ], [ 0, %4 ]
  %.sroa.02.06.i.i = phi ptr [ %11, %.lr.ph.i.i ], [ %6, %4 ]
  %9 = load i32, ptr %.sroa.02.06.i.i, align 4
  %10 = add nsw i32 %9, %.07.i.i
  %11 = getelementptr inbounds nuw i8, ptr %.sroa.02.06.i.i, i64 4
  %.not.i.i = icmp eq ptr %11, %8
  br i1 %.not.i.i, label %_ZSt10accumulateIN9__gnu_cxx17__normal_iteratorIPKiSt6vectorIiSaIiEEEEiET0_T_S9_S8_.exit.loopexit.i, label %.lr.ph.i.i, !llvm.loop !20

_ZSt10accumulateIN9__gnu_cxx17__normal_iteratorIPKiSt6vectorIiSaIiEEEEiET0_T_S9_S8_.exit.loopexit.i: ; preds = %.lr.ph.i.i
  %12 = icmp eq i32 %10, 0
  br label %_ZNK10open_spiel3nim8NimState7IsEmptyEv.exit

_ZNK10open_spiel3nim8NimState7IsEmptyEv.exit:     ; preds = %_ZSt10accumulateIN9__gnu_cxx17__normal_iteratorIPKiSt6vectorIiSaIiEEEEiET0_T_S9_S8_.exit.loopexit.i, %4, %1
  %13 = phi i1 [ true, %1 ], [ true, %4 ], [ %12, %_ZSt10accumulateIN9__gnu_cxx17__normal_iteratorIPKiSt6vectorIiSaIiEEEEiET0_T_S9_S8_.exit.loopexit.i ]
  ret i1 %13
}